ccopy_reg
_reconstructor
p0
(csklearn.linear_model.base
LinearRegression
p1
c__builtin__
object
p2
Ntp3
Rp4
(dp5
S'normalize'
p6
I00
sS'n_jobs'
p7
I1
sS'rank_'
p8
I4
sS'fit_intercept'
p9
I01
sS'_residues'
p10
cnumpy.core.multiarray
scalar
p11
(cnumpy
dtype
p12
(S'f8'
p13
I0
I1
tp14
Rp15
(I3
S'<'
p16
NNNI-1
I-1
I0
tp17
bS'BK\x1f\xe9m.CA'
p18
tp19
Rp20
sS'coef_'
p21
cnumpy.core.multiarray
_reconstruct
p22
(cnumpy
ndarray
p23
(I0
tp24
S'b'
p25
tp26
Rp27
(I1
(I4
tp28
g15
I00
S'\x1c\x8c\xbdf\xc6\xfad@\xa4\x08\x9cn\xce\x06\xf9\xbfLT\xad\x81\xca\xb7\xdc?\xc8\xa8\xb2H.\xf0\t\xc0'
p29
tp30
bsS'copy_X'
p31
I01
sS'intercept_'
p32
g11
(g15
S'ZX\x18x\x01\xf1t@'
p33
tp34
Rp35
sS'singular_'
p36
g22
(g23
(I0
tp37
g25
tp38
Rp39
(I1
(I4
tp40
g15
I00
S'\xb3W\xbeE\x9e\x8fP@+r\x8c\x14\\{H@\x12>\x17\x91\xa7fD@\x1b\xd0\xe5\xf0\xf4\xbf;@'
p41
tp42
bsb.